target datalayout = "e-m:e-p270:32:32-p271:32:32-p272:64:64-i64:64-i128:128-f80:128-n8:16:32:64-S128"
target triple = "x86_64-pc-linux-gnu"

%struct.dwt_local = type { ptr, i32, i32, i32 }
%struct.opj_dwt_decode_v_job_t = type { %struct.dwt_local, i32, i32, ptr, i32, i32 }

; Function Attrs: nounwind uwtable
define internal void @opj_dwt_decode_v_func(ptr noundef %0, ptr noundef %1) #0 {
  %3 = alloca ptr, align 8
  %4 = alloca ptr, align 8
  %5 = alloca i32, align 4
  %6 = alloca ptr, align 8
  store ptr %0, ptr %3, align 8, !tbaa !20
  store ptr %1, ptr %4, align 8, !tbaa !164
  call void @llvm.lifetime.start.p0(i64 4, ptr %5) #9
  call void @llvm.lifetime.start.p0(i64 8, ptr %6) #9
  %7 = load ptr, ptr %3, align 8, !tbaa !20
  store ptr %7, ptr %6, align 8, !tbaa !20
  %8 = load ptr, ptr %6, align 8, !tbaa !20
  %9 = getelementptr inbounds nuw %struct.opj_dwt_decode_v_job_t, ptr %8, i32 0, i32 4
  %10 = load i32, ptr %9, align 8, !tbaa !84
  store i32 %10, ptr %5, align 4, !tbaa !24
  br label %11

11:                                               ; preds = %31, %2
  %12 = load i32, ptr %5, align 4, !tbaa !24
  %13 = add i32 %12, 8
  %14 = load ptr, ptr %6, align 8, !tbaa !20
  %15 = getelementptr inbounds nuw %struct.opj_dwt_decode_v_job_t, ptr %14, i32 0, i32 5
  %16 = load i32, ptr %15, align 4, !tbaa !85
  %17 = icmp ule i32 %13, %16
  br i1 %17, label %18, label %34

18:                                               ; preds = %11
  %19 = load ptr, ptr %6, align 8, !tbaa !20
  %20 = getelementptr inbounds nuw %struct.opj_dwt_decode_v_job_t, ptr %19, i32 0, i32 0
  %21 = load ptr, ptr %6, align 8, !tbaa !20
  %22 = getelementptr inbounds nuw %struct.opj_dwt_decode_v_job_t, ptr %21, i32 0, i32 3
  %23 = load ptr, ptr %22, align 8, !tbaa !83
  %24 = load i32, ptr %5, align 4, !tbaa !24
  %25 = zext i32 %24 to i64
  %26 = getelementptr inbounds nuw i32, ptr %23, i64 %25
  %27 = load ptr, ptr %6, align 8, !tbaa !20
  %28 = getelementptr inbounds nuw %struct.opj_dwt_decode_v_job_t, ptr %27, i32 0, i32 2
  %29 = load i32, ptr %28, align 4, !tbaa !82
  %30 = zext i32 %29 to i64
  call void @opj_idwt53_v(ptr noundef %20, ptr noundef %26, i64 noundef %30, i32 noundef 8)
  br label %31

31:                                               ; preds = %18
  %32 = load i32, ptr %5, align 4, !tbaa !24
  %33 = add i32 %32, 8
  store i32 %33, ptr %5, align 4, !tbaa !24
  br label %11, !llvm.loop !191

34:                                               ; preds = %11
  %35 = load i32, ptr %5, align 4, !tbaa !24
  %36 = load ptr, ptr %6, align 8, !tbaa !20
  %37 = getelementptr inbounds nuw %struct.opj_dwt_decode_v_job_t, ptr %36, i32 0, i32 5
  %38 = load i32, ptr %37, align 4, !tbaa !85
  %39 = icmp ult i32 %35, %38
  br i1 %39, label %40, label %58

40:                                               ; preds = %34
  %41 = load ptr, ptr %6, align 8, !tbaa !20
  %42 = getelementptr inbounds nuw %struct.opj_dwt_decode_v_job_t, ptr %41, i32 0, i32 0
  %43 = load ptr, ptr %6, align 8, !tbaa !20
  %44 = getelementptr inbounds nuw %struct.opj_dwt_decode_v_job_t, ptr %43, i32 0, i32 3
  %45 = load ptr, ptr %44, align 8, !tbaa !83
  %46 = load i32, ptr %5, align 4, !tbaa !24
  %47 = zext i32 %46 to i64
  %48 = getelementptr inbounds nuw i32, ptr %45, i64 %47
  %49 = load ptr, ptr %6, align 8, !tbaa !20
  %50 = getelementptr inbounds nuw %struct.opj_dwt_decode_v_job_t, ptr %49, i32 0, i32 2
  %51 = load i32, ptr %50, align 4, !tbaa !82
  %52 = zext i32 %51 to i64
  %53 = load ptr, ptr %6, align 8, !tbaa !20
  %54 = getelementptr inbounds nuw %struct.opj_dwt_decode_v_job_t, ptr %53, i32 0, i32 5
  %55 = load i32, ptr %54, align 4, !tbaa !85
  %56 = load i32, ptr %5, align 4, !tbaa !24
  %57 = sub i32 %55, %56
  call void @opj_idwt53_v(ptr noundef %42, ptr noundef %48, i64 noundef %52, i32 noundef %57)
  br label %58

58:                                               ; preds = %40, %34
  %59 = load ptr, ptr %6, align 8, !tbaa !20
  %60 = getelementptr inbounds nuw %struct.opj_dwt_decode_v_job_t, ptr %59, i32 0, i32 0
  %61 = getelementptr inbounds nuw %struct.dwt_local, ptr %60, i32 0, i32 0
  %62 = load ptr, ptr %61, align 8, !tbaa !86
  call void @opj_aligned_free(ptr noundef %62)
  %63 = load ptr, ptr %6, align 8, !tbaa !20
  call void @opj_free(ptr noundef %63)
  call void @llvm.lifetime.end.p0(i64 8, ptr %6) #9
  call void @llvm.lifetime.end.p0(i64 4, ptr %5) #9
  ret void
}