; Function Attrs: nounwind uwtable
define internal void @opj_dwt_decode_v_func(ptr noundef %0, ptr readnone captures(none) %1) #0 {
  %3 = getelementptr inbounds nuw i8, ptr %0, i64 40
  %4 = load i32, ptr %3, align 8, !tbaa !100
  %5 = getelementptr inbounds nuw i8, ptr %0, i64 44
  %6 = add i32 %4, 8
  %7 = load i32, ptr %5, align 4, !tbaa !101
  %.not20 = icmp ugt i32 %6, %7
  br i1 %.not20, label %._crit_edge, label %.lr.ph

.lr.ph:                                           ; preds = %2
  %8 = getelementptr inbounds nuw i8, ptr %0, i64 32
  %9 = getelementptr inbounds nuw i8, ptr %0, i64 28
  br label %10

10:                                               ; preds = %.lr.ph, %10
  %11 = phi i32 [ %6, %.lr.ph ], [ %17, %10 ]
  %.021 = phi i32 [ %4, %.lr.ph ], [ %11, %10 ]
  %12 = load ptr, ptr %8, align 8, !tbaa !99
  %13 = zext i32 %.021 to i64
  %14 = getelementptr inbounds nuw i32, ptr %12, i64 %13
  %15 = load i32, ptr %9, align 4, !tbaa !98
  %16 = zext i32 %15 to i64
  tail call fastcc void @opj_idwt53_v(ptr noundef nonnull %0, ptr noundef %14, i64 noundef %16, i32 noundef 8)
  %17 = add i32 %11, 8
  %18 = load i32, ptr %5, align 4, !tbaa !101
  %.not = icmp ugt i32 %17, %18
  br i1 %.not, label %._crit_edge, label %10, !llvm.loop !276

._crit_edge:                                      ; preds = %10, %2
  %.0.lcssa = phi i32 [ %4, %2 ], [ %11, %10 ]
  %.lcssa = phi i32 [ %7, %2 ], [ %18, %10 ]
  %19 = icmp ult i32 %.0.lcssa, %.lcssa
  br i1 %19, label %20, label %29

20:                                               ; preds = %._crit_edge
  %21 = getelementptr inbounds nuw i8, ptr %0, i64 32
  %22 = load ptr, ptr %21, align 8, !tbaa !99
  %23 = zext i32 %.0.lcssa to i64
  %24 = getelementptr inbounds nuw i32, ptr %22, i64 %23
  %25 = getelementptr inbounds nuw i8, ptr %0, i64 28
  %26 = load i32, ptr %25, align 4, !tbaa !98
  %27 = zext i32 %26 to i64
  %28 = sub nuw i32 %.lcssa, %.0.lcssa
  tail call fastcc void @opj_idwt53_v(ptr noundef nonnull %0, ptr noundef %24, i64 noundef %27, i32 noundef %28)
  br label %29

29:                                               ; preds = %20, %._crit_edge
  %30 = load ptr, ptr %0, align 8, !tbaa !102
  tail call void @opj_aligned_free(ptr noundef %30) #16
  tail call void @opj_free(ptr noundef nonnull %0) #16
  ret void
}